; Function Attrs: nounwind uwtable
define ptr @l___private_Lean_Elab_Tactic_Conv_Congr_0__Lean_Elab_Tactic_Conv_isImplies___boxed(ptr noundef %0, ptr noundef %1, ptr noundef %2, ptr noundef %3, ptr noundef %4, ptr noundef %5) local_unnamed_addr #1 {
  %7 = tail call ptr @l___private_Lean_Elab_Tactic_Conv_Congr_0__Lean_Elab_Tactic_Conv_isImplies(ptr noundef %0, ptr noundef %1, ptr noundef %2, ptr noundef %3, ptr noundef %4, ptr noundef %5)
  %8 = ptrtoint ptr %0 to i64
  %9 = and i64 %8, 1
  %.not = icmp eq i64 %9, 0
  br i1 %.not, label %10, label %lean_dec.exit

10:                                               ; preds = %6
  %11 = load i32, ptr %0, align 4, !tbaa !6
  %12 = icmp sgt i32 %11, 1
  br i1 %12, label %13, label %15, !prof !5

13:                                               ; preds = %10
  %14 = add nsw i32 %11, -1
  store i32 %14, ptr %0, align 4, !tbaa !6
  br label %lean_dec.exit

15:                                               ; preds = %10
  %.not.i = icmp eq i32 %11, 0
  br i1 %.not.i, label %lean_dec.exit, label %16

16:                                               ; preds = %15
  tail call void @lean_dec_ref_cold(ptr noundef nonnull %0) #4
  br label %lean_dec.exit

lean_dec.exit:                                    ; preds = %16, %15, %13, %6
  ret ptr %7
}